target datalayout = "e-m:e-p270:32:32-p271:32:32-p272:64:64-i64:64-i128:128-f80:128-n8:16:32:64-S128"
target triple = "x86_64-pc-linux-gnu"

%struct.H5F_t = type { ptr, ptr, ptr, ptr, i32, ptr, i8, i8, ptr, i32 }
%struct.H5F_shared_t = type { ptr, ptr, ptr, i8, i32, i32, %struct.H5F_mtab_t, ptr, i8, i8, i64, i32, i32, i64, i64, ptr, ptr, %struct.H5AC_cache_config_t, %struct.H5AC_cache_image_config_t, i8, i8, ptr, i64, i32, i8, i64, i64, double, i64, i64, i64, i32, i32, i32, i8, i32, ptr, ptr, ptr, ptr, i8, i8, i8, i64, ptr, ptr, i32, i64, i8, i32, i8, i64, i8, [13 x i32], [13 x i64], [13 x ptr], i8, i64, i64, [7 x i32], [7 x i32], %struct.H5F_blk_aggr_t, %struct.H5F_blk_aggr_t, i64, i64, %struct.H5F_meta_accum_t, i32, i32, [30 x ptr], %struct.H5F_object_flush_t, i8, ptr }
%struct.H5F_mtab_t = type { i32, i32, ptr }
%struct.H5AC_cache_config_t = type { i32, i8, i8, i8, [1025 x i8], i8, i8, i64, double, i64, i64, i64, i32, double, double, i8, i64, i32, double, double, i32, double, double, i8, i64, i32, i8, double, i64, i32 }
%struct.H5AC_cache_image_config_t = type { i32, i8, i8, i32 }
%struct.H5F_blk_aggr_t = type { i64, i64, i64, i64, i64 }
%struct.H5F_meta_accum_t = type { ptr, i64, i64, i64, i64, i64, i8 }
%struct.H5F_object_flush_t = type { ptr, ptr }
%struct.H5F_mount_t = type { ptr, ptr }

@H5F_init_g = external global i8, align 1
@H5_libterm_g = external global i8, align 1
@.str = private unnamed_addr constant [102 x i8] c"generated/home/dtcxzyw/WorkSpace/Projects/compilers/llvm-opt-benchmark/bench/hdf5/hdf5/src/H5Fmount.c\00", align 1
@H5E_FILE_g = external global i64, align 8
@H5E_CANTFLUSH_g = external global i64, align 8
@__func__.H5F__flush_mounts_recurse = private unnamed_addr constant [26 x i8] c"H5F__flush_mounts_recurse\00", align 1
@.str.25 = private unnamed_addr constant [42 x i8] c"unable to flush file's cached information\00", align 1
@.str.26 = private unnamed_addr constant [36 x i8] c"unable to flush file's child mounts\00", align 1

; Function Attrs: nounwind uwtable
define internal i32 @H5F__flush_mounts_recurse(ptr noundef %0) #0 {
  %2 = alloca ptr, align 8
  %3 = alloca i32, align 4
  %4 = alloca i32, align 4
  %5 = alloca i32, align 4
  %6 = alloca i8, align 1
  store ptr %0, ptr %2, align 8, !tbaa !3
  call void @llvm.lifetime.start.p0(i64 4, ptr %3) #5
  store i32 0, ptr %3, align 4, !tbaa !8
  call void @llvm.lifetime.start.p0(i64 4, ptr %4) #5
  call void @llvm.lifetime.start.p0(i64 4, ptr %5) #5
  store i32 0, ptr %5, align 4, !tbaa !8
  call void @llvm.lifetime.start.p0(i64 1, ptr %6) #5
  store i8 0, ptr %6, align 1, !tbaa !10
  %7 = load i8, ptr @H5F_init_g, align 1, !tbaa !10, !range !12, !noundef !13
  %8 = trunc i8 %7 to i1
  br i1 %8, label %13, label %9

9:                                                ; preds = %1
  %10 = load i8, ptr @H5_libterm_g, align 1, !tbaa !10, !range !12, !noundef !13
  %11 = trunc i8 %10 to i1
  %12 = xor i1 %11, true
  br label %13

13:                                               ; preds = %9, %1
  %14 = phi i1 [ true, %1 ], [ %12, %9 ]
  %15 = xor i1 %14, true
  %16 = xor i1 %15, true
  %17 = zext i1 %16 to i32
  %18 = sext i32 %17 to i64
  %19 = call i64 @llvm.expect.i64(i64 %18, i64 1)
  %20 = icmp ne i64 %19, 0
  br i1 %20, label %21, label %99

21:                                               ; preds = %13
  store i32 0, ptr %4, align 4, !tbaa !8
  br label %22

22:                                               ; preds = %49, %21
  %23 = load i32, ptr %4, align 4, !tbaa !8
  %24 = load ptr, ptr %2, align 8, !tbaa !3
  %25 = getelementptr inbounds nuw %struct.H5F_t, ptr %24, i32 0, i32 2
  %26 = load ptr, ptr %25, align 8, !tbaa !14
  %27 = getelementptr inbounds nuw %struct.H5F_shared_t, ptr %26, i32 0, i32 6
  %28 = getelementptr inbounds nuw %struct.H5F_mtab_t, ptr %27, i32 0, i32 0
  %29 = load i32, ptr %28, align 8, !tbaa !20
  %30 = icmp ult i32 %23, %29
  br i1 %30, label %31, label %52

31:                                               ; preds = %22
  %32 = load ptr, ptr %2, align 8, !tbaa !3
  %33 = getelementptr inbounds nuw %struct.H5F_t, ptr %32, i32 0, i32 2
  %34 = load ptr, ptr %33, align 8, !tbaa !14
  %35 = getelementptr inbounds nuw %struct.H5F_shared_t, ptr %34, i32 0, i32 6
  %36 = getelementptr inbounds nuw %struct.H5F_mtab_t, ptr %35, i32 0, i32 2
  %37 = load ptr, ptr %36, align 8, !tbaa !41
  %38 = load i32, ptr %4, align 4, !tbaa !8
  %39 = zext i32 %38 to i64
  %40 = getelementptr inbounds nuw %struct.H5F_mount_t, ptr %37, i64 %39
  %41 = getelementptr inbounds nuw %struct.H5F_mount_t, ptr %40, i32 0, i32 1
  %42 = load ptr, ptr %41, align 8, !tbaa !42
  %43 = call i32 @H5F__flush_mounts_recurse(ptr noundef %42)
  %44 = icmp slt i32 %43, 0
  br i1 %44, label %45, label %48

45:                                               ; preds = %31
  %46 = load i32, ptr %3, align 4, !tbaa !8
  %47 = add i32 %46, 1
  store i32 %47, ptr %3, align 4, !tbaa !8
  br label %48

48:                                               ; preds = %45, %31
  br label %49

49:                                               ; preds = %48
  %50 = load i32, ptr %4, align 4, !tbaa !8
  %51 = add i32 %50, 1
  store i32 %51, ptr %4, align 4, !tbaa !8
  br label %22, !llvm.loop !82

52:                                               ; preds = %22
  %53 = load ptr, ptr %2, align 8, !tbaa !3
  %54 = call i32 @H5F__flush(ptr noundef %53)
  %55 = icmp slt i32 %54, 0
  br i1 %55, label %56, label %75

56:                                               ; preds = %52
  br label %57

57:                                               ; preds = %56
  br label %58

58:                                               ; preds = %57
  br label %59

59:                                               ; preds = %58
  %60 = load i64, ptr @H5E_FILE_g, align 8, !tbaa !46
  %61 = load i64, ptr @H5E_CANTFLUSH_g, align 8, !tbaa !46
  %62 = call i32 (ptr, ptr, i32, i64, i64, ptr, ...) @H5E_printf_stack(ptr noundef @.str, ptr noundef @__func__.H5F__flush_mounts_recurse, i32 noundef 512, i64 noundef %60, i64 noundef %61, ptr noundef @.str.25)
  br label %63

63:                                               ; preds = %59
  br label %64

64:                                               ; preds = %63
  store i8 1, ptr %6, align 1, !tbaa !10
  %65 = load i8, ptr %6, align 1, !tbaa !10, !range !12, !noundef !13
  %66 = trunc i8 %65 to i1
  %67 = zext i1 %66 to i8
  store i8 %67, ptr %6, align 1, !tbaa !10
  br label %68

68:                                               ; preds = %64
  br label %69

69:                                               ; preds = %68
  br label %70

70:                                               ; preds = %69
  store i32 -1, ptr %5, align 4, !tbaa !8
  br label %98

71:                                               ; No predecessors!
  br label %72

72:                                               ; preds = %71
  br label %73

73:                                               ; preds = %72
  br label %74

74:                                               ; preds = %73
  br label %75

75:                                               ; preds = %74, %52
  %76 = load i32, ptr %3, align 4, !tbaa !8
  %77 = icmp ne i32 %76, 0
  br i1 %77, label %78, label %97

78:                                               ; preds = %75
  br label %79

79:                                               ; preds = %78
  br label %80

80:                                               ; preds = %79
  br label %81

81:                                               ; preds = %80
  %82 = load i64, ptr @H5E_FILE_g, align 8, !tbaa !46
  %83 = load i64, ptr @H5E_CANTFLUSH_g, align 8, !tbaa !46
  %84 = call i32 (ptr, ptr, i32, i64, i64, ptr, ...) @H5E_printf_stack(ptr noundef @.str, ptr noundef @__func__.H5F__flush_mounts_recurse, i32 noundef 516, i64 noundef %82, i64 noundef %83, ptr noundef @.str.26)
  br label %85

85:                                               ; preds = %81
  br label %86

86:                                               ; preds = %85
  store i8 1, ptr %6, align 1, !tbaa !10
  %87 = load i8, ptr %6, align 1, !tbaa !10, !range !12, !noundef !13
  %88 = trunc i8 %87 to i1
  %89 = zext i1 %88 to i8
  store i8 %89, ptr %6, align 1, !tbaa !10
  br label %90

90:                                               ; preds = %86
  br label %91

91:                                               ; preds = %90
  br label %92

92:                                               ; preds = %91
  store i32 -1, ptr %5, align 4, !tbaa !8
  br label %98

93:                                               ; No predecessors!
  br label %94

94:                                               ; preds = %93
  br label %95

95:                                               ; preds = %94
  br label %96

96:                                               ; preds = %95
  br label %97

97:                                               ; preds = %96, %75
  br label %98

98:                                               ; preds = %97, %92, %70
  br label %99

99:                                               ; preds = %98, %13
  %100 = load i32, ptr %5, align 4, !tbaa !8
  call void @llvm.lifetime.end.p0(i64 1, ptr %6) #5
  call void @llvm.lifetime.end.p0(i64 4, ptr %5) #5
  call void @llvm.lifetime.end.p0(i64 4, ptr %4) #5
  call void @llvm.lifetime.end.p0(i64 4, ptr %3) #5
  ret i32 %100
}