; Function Attrs: nounwind uwtable
define internal fastcc range(i32 -1, 1) i32 @H5F__flush_mounts_recurse(ptr noundef %0) unnamed_addr #0 {
  %2 = load i8, ptr @H5F_init_g, align 1, !tbaa !3, !range !7, !noundef !8
  %3 = trunc nuw i8 %2 to i1
  %4 = load i8, ptr @H5_libterm_g, align 1, !range !7
  %5 = trunc nuw i8 %4 to i1
  %6 = xor i1 %5, true
  %7 = select i1 %3, i1 true, i1 %6
  br i1 %7, label %.preheader, label %.thread, !prof !9

.preheader:                                       ; preds = %1
  %8 = getelementptr inbounds nuw i8, ptr %0, i64 16
  %9 = load ptr, ptr %8, align 8, !tbaa !10
  %10 = getelementptr inbounds nuw i8, ptr %9, i64 40
  %11 = load i32, ptr %10, align 8, !tbaa !19
  %.not14 = icmp eq i32 %11, 0
  br i1 %.not14, label %._crit_edge.thread, label %.lr.ph

.lr.ph:                                           ; preds = %.preheader, %.lr.ph
  %indvars.iv = phi i64 [ %indvars.iv.next, %.lr.ph ], [ 0, %.preheader ]
  %12 = phi ptr [ %19, %.lr.ph ], [ %9, %.preheader ]
  %.01112 = phi i32 [ %spec.select, %.lr.ph ], [ 0, %.preheader ]
  %13 = getelementptr inbounds nuw i8, ptr %12, i64 48
  %14 = load ptr, ptr %13, align 8, !tbaa !40
  %15 = getelementptr inbounds nuw %struct.H5F_mount_t, ptr %14, i64 %indvars.iv, i32 1
  %16 = load ptr, ptr %15, align 8, !tbaa !41
  %17 = tail call fastcc i32 @H5F__flush_mounts_recurse(ptr noundef %16)
  %18 = lshr i32 %17, 31
  %spec.select = add i32 %18, %.01112
  %indvars.iv.next = add nuw nsw i64 %indvars.iv, 1
  %19 = load ptr, ptr %8, align 8, !tbaa !10
  %20 = getelementptr inbounds nuw i8, ptr %19, i64 40
  %21 = load i32, ptr %20, align 8, !tbaa !19
  %22 = zext i32 %21 to i64
  %23 = icmp samesign ult i64 %indvars.iv.next, %22
  br i1 %23, label %.lr.ph, label %._crit_edge, !llvm.loop !74

._crit_edge:                                      ; preds = %.lr.ph
  %24 = tail call i32 @H5F__flush(ptr noundef nonnull %0) #6
  %25 = icmp slt i32 %24, 0
  br i1 %25, label %28, label %32

._crit_edge.thread:                               ; preds = %.preheader
  %26 = tail call i32 @H5F__flush(ptr noundef nonnull %0) #6
  %27 = icmp slt i32 %26, 0
  br i1 %27, label %28, label %.thread

28:                                               ; preds = %._crit_edge.thread, %._crit_edge
  %29 = load i64, ptr @H5E_FILE_g, align 8, !tbaa !45
  %30 = load i64, ptr @H5E_CANTFLUSH_g, align 8, !tbaa !45
  %31 = tail call i32 (ptr, ptr, i32, i64, i64, ptr, ...) @H5E_printf_stack(ptr noundef nonnull @.str, ptr noundef nonnull @__func__.H5F__flush_mounts_recurse, i32 noundef 512, i64 noundef %29, i64 noundef %30, ptr noundef nonnull @.str.25) #6
  br label %.thread

32:                                               ; preds = %._crit_edge
  %33 = icmp eq i32 %spec.select, 0
  br i1 %33, label %.thread, label %34

34:                                               ; preds = %32
  %35 = load i64, ptr @H5E_FILE_g, align 8, !tbaa !45
  %36 = load i64, ptr @H5E_CANTFLUSH_g, align 8, !tbaa !45
  %37 = tail call i32 (ptr, ptr, i32, i64, i64, ptr, ...) @H5E_printf_stack(ptr noundef nonnull @.str, ptr noundef nonnull @__func__.H5F__flush_mounts_recurse, i32 noundef 516, i64 noundef %35, i64 noundef %36, ptr noundef nonnull @.str.26) #6
  br label %.thread

.thread:                                          ; preds = %._crit_edge.thread, %28, %34, %32, %1
  %.0 = phi i32 [ -1, %28 ], [ -1, %34 ], [ 0, %32 ], [ 0, %1 ], [ 0, %._crit_edge.thread ]
  ret i32 %.0
}